; ModuleID = '42/1020.cpp'
source_filename = "42/1020.cpp"
target datalayout = "e-m:e-p270:32:32-p271:32:32-p272:64:64-i64:64-f80:128-n8:16:32:64-S128"
target triple = "x86_64-pc-linux-gnu"

%"class.std::ios_base::Init" = type { i8 }
%"class.std::basic_istream" = type { i32 (...)**, i64, %"class.std::basic_ios" }
%"class.std::basic_ios" = type { %"class.std::ios_base", %"class.std::basic_ostream"*, i8, i8, %"class.std::basic_streambuf"*, %"class.std::ctype"*, %"class.std::num_put"*, %"class.std::num_get"* }
%"class.std::ios_base" = type { i32 (...)**, i64, i64, i32, i32, i32, %"struct.std::ios_base::_Callback_list"*, %"struct.std::ios_base::_Words", [8 x %"struct.std::ios_base::_Words"], i32, %"struct.std::ios_base::_Words"*, %"class.std::locale" }
%"struct.std::ios_base::_Callback_list" = type { %"struct.std::ios_base::_Callback_list"*, void (i32, %"class.std::ios_base"*, i32)*, i32, i32 }
%"struct.std::ios_base::_Words" = type { i8*, i64 }
%"class.std::locale" = type { %"class.std::locale::_Impl"* }
%"class.std::locale::_Impl" = type { i32, %"class.std::locale::facet"**, i64, %"class.std::locale::facet"**, i8** }
%"class.std::locale::facet" = type <{ i32 (...)**, i32, [4 x i8] }>
%"class.std::basic_ostream" = type { i32 (...)**, %"class.std::basic_ios" }
%"class.std::basic_streambuf" = type { i32 (...)**, i8*, i8*, i8*, i8*, i8*, i8*, %"class.std::locale" }
%"class.std::ctype" = type <{ %"class.std::locale::facet.base", [4 x i8], %struct.__locale_struct*, i8, [7 x i8], i32*, i32*, i16*, i8, [256 x i8], [256 x i8], i8, [6 x i8] }>
%"class.std::locale::facet.base" = type <{ i32 (...)**, i32 }>
%struct.__locale_struct = type { [13 x %struct.__locale_data*], i16*, i32*, i32*, [13 x i8*] }
%struct.__locale_data = type opaque
%"class.std::num_put" = type { %"class.std::locale::facet.base", [4 x i8] }
%"class.std::num_get" = type { %"class.std::locale::facet.base", [4 x i8] }

@_ZStL8__ioinit = internal global %"class.std::ios_base::Init" zeroinitializer, align 1
@__dso_handle = external hidden global i8
@_ZSt3cin = external dso_local global %"class.std::basic_istream", align 8
@_ZSt4cout = external dso_local global %"class.std::basic_ostream", align 8
@.str = private unnamed_addr constant [2 x i8] c" \00", align 1
@llvm.global_ctors = appending global [1 x { i32, void ()*, i8* }] [{ i32, void ()*, i8* } { i32 65535, void ()* @_GLOBAL__sub_I_1020.cpp, i8* null }]

; Function Attrs: noinline uwtable
define internal void @__cxx_global_var_init() #0 section ".text.startup" {
  call void @_ZNSt8ios_base4InitC1Ev(%"class.std::ios_base::Init"* @_ZStL8__ioinit)
  %1 = call i32 @__cxa_atexit(void (i8*)* bitcast (void (%"class.std::ios_base::Init"*)* @_ZNSt8ios_base4InitD1Ev to void (i8*)*), i8* getelementptr inbounds (%"class.std::ios_base::Init", %"class.std::ios_base::Init"* @_ZStL8__ioinit, i32 0, i32 0), i8* @__dso_handle) #3
  ret void
}

declare dso_local void @_ZNSt8ios_base4InitC1Ev(%"class.std::ios_base::Init"*) unnamed_addr #1

; Function Attrs: nounwind
declare dso_local void @_ZNSt8ios_base4InitD1Ev(%"class.std::ios_base::Init"*) unnamed_addr #2

; Function Attrs: nounwind
declare dso_local i32 @__cxa_atexit(void (i8*)*, i8*, i8*) #3

; Function Attrs: noinline norecurse uwtable
define dso_local i32 @main() #4 {
  %1 = alloca i32, align 4
  %2 = alloca i64, align 8
  %3 = alloca i64, align 8
  %4 = alloca i64, align 8
  %5 = alloca i64, align 8
  %6 = alloca i64, align 8
  %7 = alloca i64, align 8
  %8 = alloca i8*, align 8
  %9 = alloca i64, align 8
  store i32 0, i32* %1, align 4
  store i64 0, i64* %7, align 8
  %10 = call dereferenceable(280) %"class.std::basic_istream"* @_ZNSirsERl(%"class.std::basic_istream"* @_ZSt3cin, i64* dereferenceable(8) %4)
  %11 = load i64, i64* %4, align 8
  %12 = call i8* @llvm.stacksave()
  store i8* %12, i8** %8, align 8
  %13 = alloca i64, i64 %11, align 16
  store i64 %11, i64* %9, align 8
  store i64 0, i64* %2, align 8
  br label %14

14:                                               ; preds = %22, %0
  %15 = load i64, i64* %2, align 8
  %16 = load i64, i64* %4, align 8
  %17 = icmp slt i64 %15, %16
  br i1 %17, label %18, label %25

18:                                               ; preds = %14
  %19 = load i64, i64* %2, align 8
  %20 = getelementptr inbounds i64, i64* %13, i64 %19
  %21 = call dereferenceable(280) %"class.std::basic_istream"* @_ZNSirsERl(%"class.std::basic_istream"* @_ZSt3cin, i64* dereferenceable(8) %20)
  br label %22

22:                                               ; preds = %18
  %23 = load i64, i64* %2, align 8
  %24 = add nsw i64 %23, 1
  store i64 %24, i64* %2, align 8
  br label %14

25:                                               ; preds = %14
  %26 = call dereferenceable(280) %"class.std::basic_istream"* @_ZNSirsERl(%"class.std::basic_istream"* @_ZSt3cin, i64* dereferenceable(8) %6)
  store i64 0, i64* %5, align 8
  br label %27

27:                                               ; preds = %59, %25
  %28 = load i64, i64* %5, align 8
  %29 = load i64, i64* %4, align 8
  %30 = icmp slt i64 %28, %29
  br i1 %30, label %31, label %62

31:                                               ; preds = %27
  %32 = load i64, i64* %5, align 8
  %33 = getelementptr inbounds i64, i64* %13, i64 %32
  %34 = load i64, i64* %33, align 8
  %35 = load i64, i64* %6, align 8
  %36 = icmp eq i64 %34, %35
  br i1 %36, label %37, label %58

37:                                               ; preds = %31
  %38 = load i64, i64* %7, align 8
  %39 = add nsw i64 %38, 1
  store i64 %39, i64* %7, align 8
  %40 = load i64, i64* %5, align 8
  store i64 %40, i64* %3, align 8
  br label %41

41:                                               ; preds = %52, %37
  %42 = load i64, i64* %3, align 8
  %43 = load i64, i64* %4, align 8
  %44 = icmp slt i64 %42, %43
  br i1 %44, label %45, label %55

45:                                               ; preds = %41
  %46 = load i64, i64* %3, align 8
  %47 = add nsw i64 %46, 1
  %48 = getelementptr inbounds i64, i64* %13, i64 %47
  %49 = load i64, i64* %48, align 8
  %50 = load i64, i64* %3, align 8
  %51 = getelementptr inbounds i64, i64* %13, i64 %50
  store i64 %49, i64* %51, align 8
  br label %52

52:                                               ; preds = %45
  %53 = load i64, i64* %3, align 8
  %54 = add nsw i64 %53, 1
  store i64 %54, i64* %3, align 8
  br label %41

55:                                               ; preds = %41
  %56 = load i64, i64* %5, align 8
  %57 = add nsw i64 %56, -1
  store i64 %57, i64* %5, align 8
  br label %58

58:                                               ; preds = %55, %31
  br label %59

59:                                               ; preds = %58
  %60 = load i64, i64* %5, align 8
  %61 = add nsw i64 %60, 1
  store i64 %61, i64* %5, align 8
  br label %27

62:                                               ; preds = %27
  store i64 0, i64* %5, align 8
  br label %63

63:                                               ; preds = %88, %62
  %64 = load i64, i64* %5, align 8
  %65 = load i64, i64* %4, align 8
  %66 = load i64, i64* %7, align 8
  %67 = sub nsw i64 %65, %66
  %68 = icmp slt i64 %64, %67
  br i1 %68, label %69, label %91

69:                                               ; preds = %63
  %70 = load i64, i64* %5, align 8
  %71 = load i64, i64* %4, align 8
  %72 = load i64, i64* %7, align 8
  %73 = sub nsw i64 %71, %72
  %74 = sub nsw i64 %73, 1
  %75 = icmp ne i64 %70, %74
  br i1 %75, label %76, label %82

76:                                               ; preds = %69
  %77 = load i64, i64* %5, align 8
  %78 = getelementptr inbounds i64, i64* %13, i64 %77
  %79 = load i64, i64* %78, align 8
  %80 = call dereferenceable(272) %"class.std::basic_ostream"* @_ZNSolsEl(%"class.std::basic_ostream"* @_ZSt4cout, i64 %79)
  %81 = call dereferenceable(272) %"class.std::basic_ostream"* @_ZStlsISt11char_traitsIcEERSt13basic_ostreamIcT_ES5_PKc(%"class.std::basic_ostream"* dereferenceable(272) %80, i8* getelementptr inbounds ([2 x i8], [2 x i8]* @.str, i64 0, i64 0))
  br label %87

82:                                               ; preds = %69
  %83 = load i64, i64* %5, align 8
  %84 = getelementptr inbounds i64, i64* %13, i64 %83
  %85 = load i64, i64* %84, align 8
  %86 = call dereferenceable(272) %"class.std::basic_ostream"* @_ZNSolsEl(%"class.std::basic_ostream"* @_ZSt4cout, i64 %85)
  br label %87

87:                                               ; preds = %82, %76
  br label %88

88:                                               ; preds = %87
  %89 = load i64, i64* %5, align 8
  %90 = add nsw i64 %89, 1
  store i64 %90, i64* %5, align 8
  br label %63

91:                                               ; preds = %63
  store i32 0, i32* %1, align 4
  %92 = load i8*, i8** %8, align 8
  call void @llvm.stackrestore(i8* %92)
  %93 = load i32, i32* %1, align 4
  ret i32 %93
}

declare dso_local dereferenceable(280) %"class.std::basic_istream"* @_ZNSirsERl(%"class.std::basic_istream"*, i64* dereferenceable(8)) #1

; Function Attrs: nounwind
declare i8* @llvm.stacksave() #3

declare dso_local dereferenceable(272) %"class.std::basic_ostream"* @_ZStlsISt11char_traitsIcEERSt13basic_ostreamIcT_ES5_PKc(%"class.std::basic_ostream"* dereferenceable(272), i8*) #1

declare dso_local dereferenceable(272) %"class.std::basic_ostream"* @_ZNSolsEl(%"class.std::basic_ostream"*, i64) #1

; Function Attrs: nounwind
declare void @llvm.stackrestore(i8*) #3

; Function Attrs: noinline uwtable
define internal void @_GLOBAL__sub_I_1020.cpp() #0 section ".text.startup" {
  call void @__cxx_global_var_init()
  ret void
}


!llvm.module.flags = !{!0}
!llvm.ident = !{!1}

!0 = !{i32 1, !"wchar_size", i32 4}
!1 = !{!"clang version 10.0.0-4ubuntu1 "}
