; ModuleID = 'source-C-CXX/41/1020.cpp'
source_filename = "source-C-CXX/41/1020.cpp"
target datalayout = "e-m:e-p270:32:32-p271:32:32-p272:64:64-i64:64-f80:128-n8:16:32:64-S128"
target triple = "x86_64-pc-linux-gnu"

%"class.std::ios_base::Init" = type { i8 }
%"class.std::basic_istream" = type { i32 (...)**, i64, %"class.std::basic_ios" }
%"class.std::basic_ios" = type { %"class.std::ios_base", %"class.std::basic_ostream"*, i8, i8, %"class.std::basic_streambuf"*, %"class.std::ctype"*, %"class.std::num_put"*, %"class.std::num_get"* }
%"class.std::ios_base" = type { i32 (...)**, i64, i64, i32, i32, i32, %"struct.std::ios_base::_Callback_list"*, %"struct.std::ios_base::_Words", [8 x %"struct.std::ios_base::_Words"], i32, %"struct.std::ios_base::_Words"*, %"class.std::locale" }
%"struct.std::ios_base::_Callback_list" = type { %"struct.std::ios_base::_Callback_list"*, void (i32, %"class.std::ios_base"*, i32)*, i32, i32 }
%"struct.std::ios_base::_Words" = type { i8*, i64 }
%"class.std::locale" = type { %"class.std::locale::_Impl"* }
%"class.std::locale::_Impl" = type { i32, %"class.std::locale::facet"**, i64, %"class.std::locale::facet"**, i8** }
%"class.std::locale::facet" = type <{ i32 (...)**, i32, [4 x i8] }>
%"class.std::basic_ostream" = type { i32 (...)**, %"class.std::basic_ios" }
%"class.std::basic_streambuf" = type { i32 (...)**, i8*, i8*, i8*, i8*, i8*, i8*, %"class.std::locale" }
%"class.std::ctype" = type <{ %"class.std::locale::facet.base", [4 x i8], %struct.__locale_struct*, i8, [7 x i8], i32*, i32*, i16*, i8, [256 x i8], [256 x i8], i8, [6 x i8] }>
%"class.std::locale::facet.base" = type <{ i32 (...)**, i32 }>
%struct.__locale_struct = type { [13 x %struct.__locale_data*], i16*, i32*, i32*, [13 x i8*] }
%struct.__locale_data = type opaque
%"class.std::num_put" = type { %"class.std::locale::facet.base", [4 x i8] }
%"class.std::num_get" = type { %"class.std::locale::facet.base", [4 x i8] }

@_ZStL8__ioinit = internal global %"class.std::ios_base::Init" zeroinitializer, align 1
@__dso_handle = external hidden global i8
@_ZSt3cin = external global %"class.std::basic_istream", align 8
@_ZSt4cout = external global %"class.std::basic_ostream", align 8
@.str = private unnamed_addr constant [2 x i8] c" \00", align 1
@llvm.global_ctors = appending global [1 x { i32, void ()*, i8* }] [{ i32, void ()*, i8* } { i32 65535, void ()* @_GLOBAL__sub_I_1020.cpp, i8* null }]

declare void @_ZNSt8ios_base4InitC1Ev(%"class.std::ios_base::Init"* nonnull align 1 dereferenceable(1)) unnamed_addr #0

; Function Attrs: nounwind
declare void @_ZNSt8ios_base4InitD1Ev(%"class.std::ios_base::Init"* nonnull align 1 dereferenceable(1)) unnamed_addr #1

; Function Attrs: nofree nounwind
declare i32 @__cxa_atexit(void (i8*)*, i8*, i8*) local_unnamed_addr #2

; Function Attrs: mustprogress norecurse sspstrong uwtable
define dso_local i32 @main() local_unnamed_addr #3 {
  %1 = alloca i64, align 8
  %2 = alloca i64, align 8
  %3 = bitcast i64* %1 to i8*
  call void @llvm.lifetime.start.p0i8(i64 8, i8* nonnull %3) #7
  %4 = bitcast i64* %2 to i8*
  call void @llvm.lifetime.start.p0i8(i64 8, i8* nonnull %4) #7
  %5 = call nonnull align 8 dereferenceable(16) %"class.std::basic_istream"* @_ZNSi10_M_extractIlEERSiRT_(%"class.std::basic_istream"* nonnull align 8 dereferenceable(16) @_ZSt3cin, i64* nonnull align 8 dereferenceable(8) %1)
  %6 = load i64, i64* %1, align 8, !tbaa !5
  %7 = call i8* @llvm.stacksave()
  %8 = alloca i64, i64 %6, align 16
  %9 = load i64, i64* %1, align 8, !tbaa !5
  %10 = icmp sgt i64 %9, 0
  br i1 %10, label %11, label %18

11:                                               ; preds = %0, %11
  %12 = phi i64 [ %15, %11 ], [ 0, %0 ]
  %13 = getelementptr inbounds i64, i64* %8, i64 %12
  %14 = call nonnull align 8 dereferenceable(16) %"class.std::basic_istream"* @_ZNSi10_M_extractIlEERSiRT_(%"class.std::basic_istream"* nonnull align 8 dereferenceable(16) @_ZSt3cin, i64* nonnull align 8 dereferenceable(8) %13)
  %15 = add nuw nsw i64 %12, 1
  %16 = load i64, i64* %1, align 8, !tbaa !5
  %17 = icmp slt i64 %15, %16
  br i1 %17, label %11, label %18, !llvm.loop !9

18:                                               ; preds = %11, %0
  %19 = call nonnull align 8 dereferenceable(16) %"class.std::basic_istream"* @_ZNSi10_M_extractIlEERSiRT_(%"class.std::basic_istream"* nonnull align 8 dereferenceable(16) @_ZSt3cin, i64* nonnull align 8 dereferenceable(8) %2)
  %20 = load i64, i64* %1, align 8, !tbaa !5
  %21 = load i64, i64* %2, align 8
  %22 = icmp sgt i64 %20, 0
  br i1 %22, label %27, label %23

23:                                               ; preds = %109, %18
  %24 = phi i64 [ 0, %18 ], [ %111, %109 ]
  %25 = sub nsw i64 %20, %24
  %26 = icmp sgt i64 %25, 0
  br i1 %26, label %114, label %129

27:                                               ; preds = %18, %109
  %28 = phi i64 [ %111, %109 ], [ 0, %18 ]
  %29 = phi i64 [ %112, %109 ], [ 0, %18 ]
  %30 = getelementptr inbounds i64, i64* %8, i64 %29
  %31 = load i64, i64* %30, align 8, !tbaa !5
  %32 = icmp eq i64 %31, %21
  br i1 %32, label %33, label %109

33:                                               ; preds = %27
  %34 = add nsw i64 %28, 1
  %35 = icmp sgt i64 %20, %29
  br i1 %35, label %36, label %107

36:                                               ; preds = %33
  %37 = sub i64 %20, %29
  %38 = icmp ult i64 %37, 4
  br i1 %38, label %98, label %39

39:                                               ; preds = %36
  %40 = and i64 %37, -4
  %41 = add i64 %29, %40
  %42 = add i64 %40, -4
  %43 = lshr exact i64 %42, 2
  %44 = add nuw nsw i64 %43, 1
  %45 = and i64 %44, 1
  %46 = icmp eq i64 %42, 0
  br i1 %46, label %80, label %47

47:                                               ; preds = %39
  %48 = and i64 %44, 9223372036854775806
  br label %49

49:                                               ; preds = %49, %47
  %50 = phi i64 [ 0, %47 ], [ %77, %49 ]
  %51 = phi i64 [ %48, %47 ], [ %78, %49 ]
  %52 = add i64 %29, %50
  %53 = add nsw i64 %52, 1
  %54 = getelementptr inbounds i64, i64* %8, i64 %53
  %55 = bitcast i64* %54 to <2 x i64>*
  %56 = load <2 x i64>, <2 x i64>* %55, align 8, !tbaa !5
  %57 = getelementptr inbounds i64, i64* %54, i64 2
  %58 = bitcast i64* %57 to <2 x i64>*
  %59 = load <2 x i64>, <2 x i64>* %58, align 8, !tbaa !5
  %60 = getelementptr inbounds i64, i64* %8, i64 %52
  %61 = bitcast i64* %60 to <2 x i64>*
  store <2 x i64> %56, <2 x i64>* %61, align 8, !tbaa !5
  %62 = getelementptr inbounds i64, i64* %60, i64 2
  %63 = bitcast i64* %62 to <2 x i64>*
  store <2 x i64> %59, <2 x i64>* %63, align 8, !tbaa !5
  %64 = or i64 %50, 4
  %65 = add i64 %29, %64
  %66 = add nsw i64 %65, 1
  %67 = getelementptr inbounds i64, i64* %8, i64 %66
  %68 = bitcast i64* %67 to <2 x i64>*
  %69 = load <2 x i64>, <2 x i64>* %68, align 8, !tbaa !5
  %70 = getelementptr inbounds i64, i64* %67, i64 2
  %71 = bitcast i64* %70 to <2 x i64>*
  %72 = load <2 x i64>, <2 x i64>* %71, align 8, !tbaa !5
  %73 = getelementptr inbounds i64, i64* %8, i64 %65
  %74 = bitcast i64* %73 to <2 x i64>*
  store <2 x i64> %69, <2 x i64>* %74, align 8, !tbaa !5
  %75 = getelementptr inbounds i64, i64* %73, i64 2
  %76 = bitcast i64* %75 to <2 x i64>*
  store <2 x i64> %72, <2 x i64>* %76, align 8, !tbaa !5
  %77 = add nuw i64 %50, 8
  %78 = add i64 %51, -2
  %79 = icmp eq i64 %78, 0
  br i1 %79, label %80, label %49, !llvm.loop !11

80:                                               ; preds = %49, %39
  %81 = phi i64 [ 0, %39 ], [ %77, %49 ]
  %82 = icmp eq i64 %45, 0
  br i1 %82, label %96, label %83

83:                                               ; preds = %80
  %84 = add i64 %29, %81
  %85 = add nsw i64 %84, 1
  %86 = getelementptr inbounds i64, i64* %8, i64 %85
  %87 = bitcast i64* %86 to <2 x i64>*
  %88 = load <2 x i64>, <2 x i64>* %87, align 8, !tbaa !5
  %89 = getelementptr inbounds i64, i64* %86, i64 2
  %90 = bitcast i64* %89 to <2 x i64>*
  %91 = load <2 x i64>, <2 x i64>* %90, align 8, !tbaa !5
  %92 = getelementptr inbounds i64, i64* %8, i64 %84
  %93 = bitcast i64* %92 to <2 x i64>*
  store <2 x i64> %88, <2 x i64>* %93, align 8, !tbaa !5
  %94 = getelementptr inbounds i64, i64* %92, i64 2
  %95 = bitcast i64* %94 to <2 x i64>*
  store <2 x i64> %91, <2 x i64>* %95, align 8, !tbaa !5
  br label %96

96:                                               ; preds = %80, %83
  %97 = icmp eq i64 %37, %40
  br i1 %97, label %107, label %98

98:                                               ; preds = %36, %96
  %99 = phi i64 [ %29, %36 ], [ %41, %96 ]
  br label %100

100:                                              ; preds = %98, %100
  %101 = phi i64 [ %102, %100 ], [ %99, %98 ]
  %102 = add nsw i64 %101, 1
  %103 = getelementptr inbounds i64, i64* %8, i64 %102
  %104 = load i64, i64* %103, align 8, !tbaa !5
  %105 = getelementptr inbounds i64, i64* %8, i64 %101
  store i64 %104, i64* %105, align 8, !tbaa !5
  %106 = icmp eq i64 %102, %20
  br i1 %106, label %107, label %100, !llvm.loop !13

107:                                              ; preds = %100, %96, %33
  %108 = add nsw i64 %29, -1
  br label %109

109:                                              ; preds = %27, %107
  %110 = phi i64 [ %108, %107 ], [ %29, %27 ]
  %111 = phi i64 [ %34, %107 ], [ %28, %27 ]
  %112 = add nsw i64 %110, 1
  %113 = icmp slt i64 %112, %20
  br i1 %113, label %27, label %23, !llvm.loop !15

114:                                              ; preds = %23, %124
  %115 = phi i64 [ %127, %124 ], [ %25, %23 ]
  %116 = phi i64 [ %125, %124 ], [ 0, %23 ]
  %117 = add nsw i64 %115, -1
  %118 = icmp eq i64 %116, %117
  %119 = getelementptr inbounds i64, i64* %8, i64 %116
  %120 = load i64, i64* %119, align 8, !tbaa !5
  %121 = call nonnull align 8 dereferenceable(8) %"class.std::basic_ostream"* @_ZNSo9_M_insertIlEERSoT_(%"class.std::basic_ostream"* nonnull align 8 dereferenceable(8) @_ZSt4cout, i64 %120)
  br i1 %118, label %124, label %122

122:                                              ; preds = %114
  %123 = call nonnull align 8 dereferenceable(8) %"class.std::basic_ostream"* @_ZSt16__ostream_insertIcSt11char_traitsIcEERSt13basic_ostreamIT_T0_ES6_PKS3_l(%"class.std::basic_ostream"* nonnull align 8 dereferenceable(8) %121, i8* nonnull getelementptr inbounds ([2 x i8], [2 x i8]* @.str, i64 0, i64 0), i64 1)
  br label %124

124:                                              ; preds = %114, %122
  %125 = add nuw nsw i64 %116, 1
  %126 = load i64, i64* %1, align 8, !tbaa !5
  %127 = sub nsw i64 %126, %24
  %128 = icmp slt i64 %125, %127
  br i1 %128, label %114, label %129, !llvm.loop !16

129:                                              ; preds = %124, %23
  call void @llvm.stackrestore(i8* %7)
  call void @llvm.lifetime.end.p0i8(i64 8, i8* nonnull %4) #7
  call void @llvm.lifetime.end.p0i8(i64 8, i8* nonnull %3) #7
  ret i32 0
}

; Function Attrs: argmemonly mustprogress nofree nosync nounwind willreturn
declare void @llvm.lifetime.start.p0i8(i64 immarg, i8* nocapture) #4

; Function Attrs: mustprogress nofree nosync nounwind willreturn
declare i8* @llvm.stacksave() #5

; Function Attrs: mustprogress nofree nosync nounwind willreturn
declare void @llvm.stackrestore(i8*) #5

; Function Attrs: argmemonly mustprogress nofree nosync nounwind willreturn
declare void @llvm.lifetime.end.p0i8(i64 immarg, i8* nocapture) #4

declare nonnull align 8 dereferenceable(16) %"class.std::basic_istream"* @_ZNSi10_M_extractIlEERSiRT_(%"class.std::basic_istream"* nonnull align 8 dereferenceable(16), i64* nonnull align 8 dereferenceable(8)) local_unnamed_addr #0

declare nonnull align 8 dereferenceable(8) %"class.std::basic_ostream"* @_ZNSo9_M_insertIlEERSoT_(%"class.std::basic_ostream"* nonnull align 8 dereferenceable(8), i64) local_unnamed_addr #0

declare nonnull align 8 dereferenceable(8) %"class.std::basic_ostream"* @_ZSt16__ostream_insertIcSt11char_traitsIcEERSt13basic_ostreamIT_T0_ES6_PKS3_l(%"class.std::basic_ostream"* nonnull align 8 dereferenceable(8), i8*, i64) local_unnamed_addr #0

; Function Attrs: sspstrong uwtable
define internal void @_GLOBAL__sub_I_1020.cpp() #6 section ".text.startup" {
  tail call void @_ZNSt8ios_base4InitC1Ev(%"class.std::ios_base::Init"* nonnull align 1 dereferenceable(1) @_ZStL8__ioinit)
  %1 = tail call i32 @__cxa_atexit(void (i8*)* bitcast (void (%"class.std::ios_base::Init"*)* @_ZNSt8ios_base4InitD1Ev to void (i8*)*), i8* getelementptr inbounds (%"class.std::ios_base::Init", %"class.std::ios_base::Init"* @_ZStL8__ioinit, i64 0, i32 0), i8* nonnull @__dso_handle) #7
  ret void
}


!llvm.module.flags = !{!0, !1, !2, !3}
!llvm.ident = !{!4}

!0 = !{i32 1, !"wchar_size", i32 4}
!1 = !{i32 7, !"PIC Level", i32 2}
!2 = !{i32 7, !"PIE Level", i32 2}
!3 = !{i32 7, !"uwtable", i32 1}
!4 = !{!"clang version 13.0.0"}
!5 = !{!6, !6, i64 0}
!6 = !{!"long", !7, i64 0}
!7 = !{!"omnipotent char", !8, i64 0}
!8 = !{!"Simple C++ TBAA"}
!9 = distinct !{!9, !10}
!10 = !{!"llvm.loop.mustprogress"}
!11 = distinct !{!11, !10, !12}
!12 = !{!"llvm.loop.isvectorized", i32 1}
!13 = distinct !{!13, !10, !14, !12}
!14 = !{!"llvm.loop.unroll.runtime.disable"}
!15 = distinct !{!15, !10}
!16 = distinct !{!16, !10}
